target datalayout = "e-m:e-p270:32:32-p271:32:32-p272:64:64-i64:64-i128:128-f80:128-n8:16:32:64-S128"
target triple = "x86_64-pc-linux-gnu"

%struct.ewah_bitmap = type { ptr, i64, i64, i64, ptr }

@.str = private unnamed_addr constant [41 x i8] c"corrupt ewah bitmap: eof before bit size\00", align 1
@.str.1 = private unnamed_addr constant [39 x i8] c"corrupt ewah bitmap: eof before length\00", align 1
@.str.2 = private unnamed_addr constant [51 x i8] c"corrupt ewah bitmap: eof in data (%lu bytes short)\00", align 1
@.str.3 = private unnamed_addr constant [36 x i8] c"corrupt ewah bitmap: eof before rlw\00", align 1
@.str.4 = private unnamed_addr constant [27 x i8] c"size_t overflow: %lu * %lu\00", align 1

; Function Attrs: inlinehint nounwind uwtable
define internal i64 @default_bswap64(i64 noundef %0) #2 {
  %2 = alloca i64, align 8
  store i64 %0, ptr %2, align 8, !tbaa !10
  %3 = load i64, ptr %2, align 8, !tbaa !10
  %4 = and i64 %3, 255
  %5 = shl i64 %4, 56
  %6 = load i64, ptr %2, align 8, !tbaa !10
  %7 = and i64 %6, 65280
  %8 = shl i64 %7, 40
  %9 = or i64 %5, %8
  %10 = load i64, ptr %2, align 8, !tbaa !10
  %11 = and i64 %10, 16711680
  %12 = shl i64 %11, 24
  %13 = or i64 %9, %12
  %14 = load i64, ptr %2, align 8, !tbaa !10
  %15 = and i64 %14, 4278190080
  %16 = shl i64 %15, 8
  %17 = or i64 %13, %16
  %18 = load i64, ptr %2, align 8, !tbaa !10
  %19 = and i64 %18, 1095216660480
  %20 = lshr i64 %19, 8
  %21 = or i64 %17, %20
  %22 = load i64, ptr %2, align 8, !tbaa !10
  %23 = and i64 %22, 280375465082880
  %24 = lshr i64 %23, 24
  %25 = or i64 %21, %24
  %26 = load i64, ptr %2, align 8, !tbaa !10
  %27 = and i64 %26, 71776119061217280
  %28 = lshr i64 %27, 40
  %29 = or i64 %25, %28
  %30 = load i64, ptr %2, align 8, !tbaa !10
  %31 = and i64 %30, -72057594037927936
  %32 = lshr i64 %31, 56
  %33 = or i64 %29, %32
  ret i64 %33
}

; Function Attrs: inlinehint nounwind uwtable
define internal i64 @git_bswap64(i64 noundef %0) #2 {
  %2 = alloca i64, align 8
  %3 = alloca i64, align 8
  store i64 %0, ptr %2, align 8, !tbaa !10
  call void @llvm.lifetime.start.p0(i64 8, ptr %3) #7
  %4 = load i64, ptr %2, align 8, !tbaa !10
  %5 = call i1 @llvm.is.constant.i64(i64 %4)
  br i1 %5, label %6, label %9

6:                                                ; preds = %1
  %7 = load i64, ptr %2, align 8, !tbaa !10
  %8 = call i64 @default_bswap64(i64 noundef %7)
  store i64 %8, ptr %3, align 8, !tbaa !10
  br label %12

9:                                                ; preds = %1
  %10 = load i64, ptr %2, align 8, !tbaa !10
  %11 = call i64 asm "bswap ${0:q}", "=r,0,~{dirflag},~{fpsr},~{flags}"(i64 %10) #8, !srcloc !26
  store i64 %11, ptr %3, align 8, !tbaa !10
  br label %12

12:                                               ; preds = %9, %6
  %13 = load i64, ptr %3, align 8, !tbaa !10
  call void @llvm.lifetime.end.p0(i64 8, ptr %3) #7
  ret i64 %13
}

; Function Attrs: inlinehint nounwind uwtable
define internal i64 @st_mult(i64 noundef %0, i64 noundef %1) #2 {
  %3 = alloca i64, align 8
  %4 = alloca i64, align 8
  store i64 %0, ptr %3, align 8, !tbaa !10
  store i64 %1, ptr %4, align 8, !tbaa !10
  %5 = load i64, ptr %3, align 8, !tbaa !10
  %6 = icmp ne i64 %5, 0
  br i1 %6, label %7, label %15

7:                                                ; preds = %2
  %8 = load i64, ptr %4, align 8, !tbaa !10
  %9 = load i64, ptr %3, align 8, !tbaa !10
  %10 = udiv i64 -1, %9
  %11 = icmp ugt i64 %8, %10
  br i1 %11, label %12, label %15

12:                                               ; preds = %7
  %13 = load i64, ptr %3, align 8, !tbaa !10
  %14 = load i64, ptr %4, align 8, !tbaa !10
  call void (ptr, ...) @die(ptr noundef @.str.4, i64 noundef %13, i64 noundef %14) #9
  unreachable

15:                                               ; preds = %7, %2
  %16 = load i64, ptr %3, align 8, !tbaa !10
  %17 = load i64, ptr %4, align 8, !tbaa !10
  %18 = mul i64 %16, %17
  ret i64 %18
}

; Function Attrs: inlinehint nounwind uwtable
define internal i32 @get_be32(ptr noundef %0) #2 {
  %2 = alloca ptr, align 8
  %3 = alloca ptr, align 8
  store ptr %0, ptr %2, align 8, !tbaa !9
  call void @llvm.lifetime.start.p0(i64 8, ptr %3) #7
  %4 = load ptr, ptr %2, align 8, !tbaa !9
  store ptr %4, ptr %3, align 8, !tbaa !29
  %5 = load ptr, ptr %3, align 8, !tbaa !29
  %6 = getelementptr inbounds i8, ptr %5, i64 0
  %7 = load i8, ptr %6, align 1, !tbaa !33
  %8 = zext i8 %7 to i32
  %9 = shl i32 %8, 24
  %10 = load ptr, ptr %3, align 8, !tbaa !29
  %11 = getelementptr inbounds i8, ptr %10, i64 1
  %12 = load i8, ptr %11, align 1, !tbaa !33
  %13 = zext i8 %12 to i32
  %14 = shl i32 %13, 16
  %15 = or i32 %9, %14
  %16 = load ptr, ptr %3, align 8, !tbaa !29
  %17 = getelementptr inbounds i8, ptr %16, i64 2
  %18 = load i8, ptr %17, align 1, !tbaa !33
  %19 = zext i8 %18 to i32
  %20 = shl i32 %19, 8
  %21 = or i32 %15, %20
  %22 = load ptr, ptr %3, align 8, !tbaa !29
  %23 = getelementptr inbounds i8, ptr %22, i64 3
  %24 = load i8, ptr %23, align 1, !tbaa !33
  %25 = zext i8 %24 to i32
  %26 = shl i32 %25, 0
  %27 = or i32 %21, %26
  call void @llvm.lifetime.end.p0(i64 8, ptr %3) #7
  ret i32 %27
}

; Function Attrs: inlinehint nounwind uwtable
define internal i32 @const_error() #2 {
  ret i32 -1
}

; Function Attrs: nounwind uwtable
define dso_local i64 @ewah_read_mmap(ptr noundef %0, ptr noundef %1, i64 noundef %2) #0 {
  %4 = alloca i64, align 8
  %5 = alloca ptr, align 8
  %6 = alloca ptr, align 8
  %7 = alloca i64, align 8
  %8 = alloca ptr, align 8
  %9 = alloca i64, align 8
  %10 = alloca i64, align 8
  %11 = alloca i32, align 4
  store ptr %0, ptr %5, align 8, !tbaa !4
  store ptr %1, ptr %6, align 8, !tbaa !9
  store i64 %2, ptr %7, align 8, !tbaa !10
  call void @llvm.lifetime.start.p0(i64 8, ptr %8) #7
  %12 = load ptr, ptr %6, align 8, !tbaa !9
  store ptr %12, ptr %8, align 8, !tbaa !29
  call void @llvm.lifetime.start.p0(i64 8, ptr %9) #7
  call void @llvm.lifetime.start.p0(i64 8, ptr %10) #7
  %13 = load i64, ptr %7, align 8, !tbaa !10
  %14 = icmp ult i64 %13, 4
  br i1 %14, label %15, label %19

15:                                               ; preds = %3
  %16 = call i32 (ptr, ...) @error(ptr noundef @.str)
  %17 = call i32 @const_error()
  %18 = sext i32 %17 to i64
  store i64 %18, ptr %4, align 8
  store i32 1, ptr %11, align 4
  br label %131

19:                                               ; preds = %3
  %20 = load ptr, ptr %8, align 8, !tbaa !29
  %21 = call i32 @get_be32(ptr noundef %20)
  %22 = zext i32 %21 to i64
  %23 = load ptr, ptr %5, align 8, !tbaa !4
  %24 = getelementptr inbounds nuw %struct.ewah_bitmap, ptr %23, i32 0, i32 3
  store i64 %22, ptr %24, align 8, !tbaa !12
  %25 = load ptr, ptr %8, align 8, !tbaa !29
  %26 = getelementptr inbounds nuw i8, ptr %25, i64 4
  store ptr %26, ptr %8, align 8, !tbaa !29
  %27 = load i64, ptr %7, align 8, !tbaa !10
  %28 = sub i64 %27, 4
  store i64 %28, ptr %7, align 8, !tbaa !10
  %29 = load i64, ptr %7, align 8, !tbaa !10
  %30 = icmp ult i64 %29, 4
  br i1 %30, label %31, label %35

31:                                               ; preds = %19
  %32 = call i32 (ptr, ...) @error(ptr noundef @.str.1)
  %33 = call i32 @const_error()
  %34 = sext i32 %33 to i64
  store i64 %34, ptr %4, align 8
  store i32 1, ptr %11, align 4
  br label %131

35:                                               ; preds = %19
  %36 = load ptr, ptr %8, align 8, !tbaa !29
  %37 = call i32 @get_be32(ptr noundef %36)
  %38 = zext i32 %37 to i64
  %39 = load ptr, ptr %5, align 8, !tbaa !4
  %40 = getelementptr inbounds nuw %struct.ewah_bitmap, ptr %39, i32 0, i32 2
  store i64 %38, ptr %40, align 8, !tbaa !31
  %41 = load ptr, ptr %5, align 8, !tbaa !4
  %42 = getelementptr inbounds nuw %struct.ewah_bitmap, ptr %41, i32 0, i32 1
  store i64 %38, ptr %42, align 8, !tbaa !17
  %43 = load ptr, ptr %8, align 8, !tbaa !29
  %44 = getelementptr inbounds nuw i8, ptr %43, i64 4
  store ptr %44, ptr %8, align 8, !tbaa !29
  %45 = load i64, ptr %7, align 8, !tbaa !10
  %46 = sub i64 %45, 4
  store i64 %46, ptr %7, align 8, !tbaa !10
  %47 = load ptr, ptr %5, align 8, !tbaa !4
  %48 = getelementptr inbounds nuw %struct.ewah_bitmap, ptr %47, i32 0, i32 0
  %49 = load ptr, ptr %48, align 8, !tbaa !18
  %50 = load ptr, ptr %5, align 8, !tbaa !4
  %51 = getelementptr inbounds nuw %struct.ewah_bitmap, ptr %50, i32 0, i32 2
  %52 = load i64, ptr %51, align 8, !tbaa !31
  %53 = call i64 @st_mult(i64 noundef 8, i64 noundef %52)
  %54 = call ptr @xrealloc(ptr noundef %49, i64 noundef %53)
  %55 = load ptr, ptr %5, align 8, !tbaa !4
  %56 = getelementptr inbounds nuw %struct.ewah_bitmap, ptr %55, i32 0, i32 0
  store ptr %54, ptr %56, align 8, !tbaa !18
  %57 = load ptr, ptr %5, align 8, !tbaa !4
  %58 = getelementptr inbounds nuw %struct.ewah_bitmap, ptr %57, i32 0, i32 1
  %59 = load i64, ptr %58, align 8, !tbaa !17
  %60 = call i64 @st_mult(i64 noundef %59, i64 noundef 8)
  store i64 %60, ptr %9, align 8, !tbaa !10
  %61 = load i64, ptr %7, align 8, !tbaa !10
  %62 = load i64, ptr %9, align 8, !tbaa !10
  %63 = icmp ult i64 %61, %62
  br i1 %63, label %64, label %71

64:                                               ; preds = %35
  %65 = load i64, ptr %9, align 8, !tbaa !10
  %66 = load i64, ptr %7, align 8, !tbaa !10
  %67 = sub i64 %65, %66
  %68 = call i32 (ptr, ...) @error(ptr noundef @.str.2, i64 noundef %67)
  %69 = call i32 @const_error()
  %70 = sext i32 %69 to i64
  store i64 %70, ptr %4, align 8
  store i32 1, ptr %11, align 4
  br label %131

71:                                               ; preds = %35
  %72 = load ptr, ptr %5, align 8, !tbaa !4
  %73 = getelementptr inbounds nuw %struct.ewah_bitmap, ptr %72, i32 0, i32 0
  %74 = load ptr, ptr %73, align 8, !tbaa !18
  %75 = load ptr, ptr %8, align 8, !tbaa !29
  %76 = load i64, ptr %9, align 8, !tbaa !10
  call void @llvm.memcpy.p0.p0.i64(ptr align 8 %74, ptr align 1 %75, i64 %76, i1 false)
  %77 = load i64, ptr %9, align 8, !tbaa !10
  %78 = load ptr, ptr %8, align 8, !tbaa !29
  %79 = getelementptr inbounds nuw i8, ptr %78, i64 %77
  store ptr %79, ptr %8, align 8, !tbaa !29
  %80 = load i64, ptr %9, align 8, !tbaa !10
  %81 = load i64, ptr %7, align 8, !tbaa !10
  %82 = sub i64 %81, %80
  store i64 %82, ptr %7, align 8, !tbaa !10
  store i64 0, ptr %10, align 8, !tbaa !10
  br label %83

83:                                               ; preds = %102, %71
  %84 = load i64, ptr %10, align 8, !tbaa !10
  %85 = load ptr, ptr %5, align 8, !tbaa !4
  %86 = getelementptr inbounds nuw %struct.ewah_bitmap, ptr %85, i32 0, i32 1
  %87 = load i64, ptr %86, align 8, !tbaa !17
  %88 = icmp ult i64 %84, %87
  br i1 %88, label %89, label %105

89:                                               ; preds = %83
  %90 = load ptr, ptr %5, align 8, !tbaa !4
  %91 = getelementptr inbounds nuw %struct.ewah_bitmap, ptr %90, i32 0, i32 0
  %92 = load ptr, ptr %91, align 8, !tbaa !18
  %93 = load i64, ptr %10, align 8, !tbaa !10
  %94 = getelementptr inbounds nuw i64, ptr %92, i64 %93
  %95 = load i64, ptr %94, align 8, !tbaa !10
  %96 = call i64 @git_bswap64(i64 noundef %95)
  %97 = load ptr, ptr %5, align 8, !tbaa !4
  %98 = getelementptr inbounds nuw %struct.ewah_bitmap, ptr %97, i32 0, i32 0
  %99 = load ptr, ptr %98, align 8, !tbaa !18
  %100 = load i64, ptr %10, align 8, !tbaa !10
  %101 = getelementptr inbounds nuw i64, ptr %99, i64 %100
  store i64 %96, ptr %101, align 8, !tbaa !10
  br label %102

102:                                              ; preds = %89
  %103 = load i64, ptr %10, align 8, !tbaa !10
  %104 = add i64 %103, 1
  store i64 %104, ptr %10, align 8, !tbaa !10
  br label %83, !llvm.loop !32

105:                                              ; preds = %83
  %106 = load i64, ptr %7, align 8, !tbaa !10
  %107 = icmp ult i64 %106, 4
  br i1 %107, label %108, label %112

108:                                              ; preds = %105
  %109 = call i32 (ptr, ...) @error(ptr noundef @.str.3)
  %110 = call i32 @const_error()
  %111 = sext i32 %110 to i64
  store i64 %111, ptr %4, align 8
  store i32 1, ptr %11, align 4
  br label %131

112:                                              ; preds = %105
  %113 = load ptr, ptr %5, align 8, !tbaa !4
  %114 = getelementptr inbounds nuw %struct.ewah_bitmap, ptr %113, i32 0, i32 0
  %115 = load ptr, ptr %114, align 8, !tbaa !18
  %116 = load ptr, ptr %8, align 8, !tbaa !29
  %117 = call i32 @get_be32(ptr noundef %116)
  %118 = zext i32 %117 to i64
  %119 = getelementptr inbounds nuw i64, ptr %115, i64 %118
  %120 = load ptr, ptr %5, align 8, !tbaa !4
  %121 = getelementptr inbounds nuw %struct.ewah_bitmap, ptr %120, i32 0, i32 4
  store ptr %119, ptr %121, align 8, !tbaa !24
  %122 = load ptr, ptr %8, align 8, !tbaa !29
  %123 = getelementptr inbounds nuw i8, ptr %122, i64 4
  store ptr %123, ptr %8, align 8, !tbaa !29
  %124 = load i64, ptr %7, align 8, !tbaa !10
  %125 = sub i64 %124, 4
  store i64 %125, ptr %7, align 8, !tbaa !10
  %126 = load ptr, ptr %8, align 8, !tbaa !29
  %127 = load ptr, ptr %6, align 8, !tbaa !9
  %128 = ptrtoint ptr %126 to i64
  %129 = ptrtoint ptr %127 to i64
  %130 = sub i64 %128, %129
  store i64 %130, ptr %4, align 8
  store i32 1, ptr %11, align 4
  br label %131

131:                                              ; preds = %112, %108, %64, %31, %15
  call void @llvm.lifetime.end.p0(i64 8, ptr %10) #7
  call void @llvm.lifetime.end.p0(i64 8, ptr %9) #7
  call void @llvm.lifetime.end.p0(i64 8, ptr %8) #7
  %132 = load i64, ptr %4, align 8
  ret i64 %132
}