; Function Attrs: nounwind uwtable
define dso_local i64 @ewah_read_mmap(ptr noundef captures(none) %0, ptr noundef %1, i64 noundef %2) local_unnamed_addr #0 {
  %4 = icmp ult i64 %2, 4
  br i1 %4, label %5, label %7

5:                                                ; preds = %3
  %6 = tail call i32 (ptr, ...) @error(ptr noundef nonnull @.str) #5
  br label %101

7:                                                ; preds = %3
  %8 = load i8, ptr %1, align 1, !tbaa !23
  %9 = zext i8 %8 to i64
  %10 = shl nuw nsw i64 %9, 24
  %11 = getelementptr inbounds nuw i8, ptr %1, i64 1
  %12 = load i8, ptr %11, align 1, !tbaa !23
  %13 = zext i8 %12 to i64
  %14 = shl nuw nsw i64 %13, 16
  %15 = or disjoint i64 %14, %10
  %16 = getelementptr inbounds nuw i8, ptr %1, i64 2
  %17 = load i8, ptr %16, align 1, !tbaa !23
  %18 = zext i8 %17 to i64
  %19 = shl nuw nsw i64 %18, 8
  %20 = or disjoint i64 %15, %19
  %21 = getelementptr inbounds nuw i8, ptr %1, i64 3
  %22 = load i8, ptr %21, align 1, !tbaa !23
  %23 = zext i8 %22 to i64
  %24 = or disjoint i64 %20, %23
  %25 = getelementptr inbounds nuw i8, ptr %0, i64 24
  store i64 %24, ptr %25, align 8, !tbaa !4
  %26 = and i64 %2, -4
  %27 = icmp eq i64 %26, 4
  br i1 %27, label %28, label %st_mult.exit

28:                                               ; preds = %7
  %29 = tail call i32 (ptr, ...) @error(ptr noundef nonnull @.str.1) #5
  br label %101

st_mult.exit:                                     ; preds = %7
  %30 = getelementptr inbounds nuw i8, ptr %1, i64 4
  %31 = load i8, ptr %30, align 1, !tbaa !23
  %32 = zext i8 %31 to i64
  %33 = shl nuw nsw i64 %32, 24
  %34 = getelementptr inbounds nuw i8, ptr %1, i64 5
  %35 = load i8, ptr %34, align 1, !tbaa !23
  %36 = zext i8 %35 to i64
  %37 = shl nuw nsw i64 %36, 16
  %38 = or disjoint i64 %37, %33
  %39 = getelementptr inbounds nuw i8, ptr %1, i64 6
  %40 = load i8, ptr %39, align 1, !tbaa !23
  %41 = zext i8 %40 to i64
  %42 = shl nuw nsw i64 %41, 8
  %43 = or disjoint i64 %38, %42
  %44 = getelementptr inbounds nuw i8, ptr %1, i64 7
  %45 = load i8, ptr %44, align 1, !tbaa !23
  %46 = zext i8 %45 to i64
  %47 = or disjoint i64 %43, %46
  %48 = getelementptr inbounds nuw i8, ptr %0, i64 16
  store i64 %47, ptr %48, align 8, !tbaa !24
  %49 = getelementptr inbounds nuw i8, ptr %0, i64 8
  store i64 %47, ptr %49, align 8, !tbaa !14
  %50 = add i64 %2, -8
  %51 = load ptr, ptr %0, align 8, !tbaa !15
  %52 = shl nuw nsw i64 %47, 3
  %53 = tail call ptr @xrealloc(ptr noundef %51, i64 noundef %52) #5
  store ptr %53, ptr %0, align 8, !tbaa !15
  %54 = load i64, ptr %49, align 8, !tbaa !14
  %mul.ov.i49 = icmp ugt i64 %54, 2305843009213693951
  br i1 %mul.ov.i49, label %55, label %st_mult.exit50

55:                                               ; preds = %st_mult.exit
  tail call void (ptr, ...) @die(ptr noundef nonnull @.str.4, i64 noundef %54, i64 noundef 8) #7
  unreachable

st_mult.exit50:                                   ; preds = %st_mult.exit
  %56 = shl nuw i64 %54, 3
  %57 = icmp ult i64 %50, %56
  br i1 %57, label %58, label %61

58:                                               ; preds = %st_mult.exit50
  %59 = sub nuw i64 %56, %50
  %60 = tail call i32 (ptr, ...) @error(ptr noundef nonnull @.str.2, i64 noundef %59) #5
  br label %101

61:                                               ; preds = %st_mult.exit50
  %62 = getelementptr inbounds nuw i8, ptr %1, i64 8
  tail call void @llvm.memcpy.p0.p0.i64(ptr align 8 %53, ptr nonnull align 1 %62, i64 %56, i1 false)
  %63 = getelementptr inbounds nuw i8, ptr %62, i64 %56
  %64 = sub nuw i64 %50, %56
  %65 = load i64, ptr %49, align 8, !tbaa !14
  %.not = icmp eq i64 %65, 0
  br i1 %.not, label %._crit_edge, label %.lr.ph

.lr.ph:                                           ; preds = %61
  %66 = load ptr, ptr %0, align 8, !tbaa !15
  br label %git_bswap64.exit

git_bswap64.exit:                                 ; preds = %.lr.ph, %git_bswap64.exit
  %.052 = phi i64 [ 0, %.lr.ph ], [ %70, %git_bswap64.exit ]
  %67 = getelementptr inbounds nuw i64, ptr %66, i64 %.052
  %68 = load i64, ptr %67, align 8, !tbaa !16
  %69 = tail call i64 asm "bswap ${0:q}", "=r,0,~{dirflag},~{fpsr},~{flags}"(i64 %68) #6, !srcloc !17
  store i64 %69, ptr %67, align 8, !tbaa !16
  %70 = add nuw i64 %.052, 1
  %71 = load i64, ptr %49, align 8, !tbaa !14
  %72 = icmp ult i64 %70, %71
  br i1 %72, label %git_bswap64.exit, label %._crit_edge, !llvm.loop !25

._crit_edge:                                      ; preds = %git_bswap64.exit, %61
  %73 = icmp ult i64 %64, 4
  br i1 %73, label %74, label %76

74:                                               ; preds = %._crit_edge
  %75 = tail call i32 (ptr, ...) @error(ptr noundef nonnull @.str.3) #5
  br label %101

76:                                               ; preds = %._crit_edge
  %77 = load ptr, ptr %0, align 8, !tbaa !15
  %78 = load i8, ptr %63, align 1, !tbaa !23
  %79 = zext i8 %78 to i64
  %80 = shl nuw nsw i64 %79, 24
  %81 = getelementptr inbounds nuw i8, ptr %63, i64 1
  %82 = load i8, ptr %81, align 1, !tbaa !23
  %83 = zext i8 %82 to i64
  %84 = shl nuw nsw i64 %83, 16
  %85 = or disjoint i64 %84, %80
  %86 = getelementptr inbounds nuw i8, ptr %63, i64 2
  %87 = load i8, ptr %86, align 1, !tbaa !23
  %88 = zext i8 %87 to i64
  %89 = shl nuw nsw i64 %88, 8
  %90 = or disjoint i64 %85, %89
  %91 = getelementptr inbounds nuw i8, ptr %63, i64 3
  %92 = load i8, ptr %91, align 1, !tbaa !23
  %93 = zext i8 %92 to i64
  %94 = or disjoint i64 %90, %93
  %95 = getelementptr inbounds nuw i64, ptr %77, i64 %94
  %96 = getelementptr inbounds nuw i8, ptr %0, i64 32
  store ptr %95, ptr %96, align 8, !tbaa !22
  %97 = getelementptr inbounds nuw i8, ptr %63, i64 4
  %98 = ptrtoint ptr %97 to i64
  %99 = ptrtoint ptr %1 to i64
  %100 = sub i64 %98, %99
  br label %101

101:                                              ; preds = %76, %74, %58, %28, %5
  %.042 = phi i64 [ -1, %5 ], [ -1, %28 ], [ -1, %58 ], [ -1, %74 ], [ %100, %76 ]
  ret i64 %.042
}